; Function Attrs: mustprogress uwtable
define hidden noundef ptr @_Z13mk_sat_tacticR11ast_managerRK10params_ref(ptr nocapture nonnull readnone align 8 %m, ptr noundef nonnull align 8 dereferenceable(8) %p) local_unnamed_addr #3 personality ptr @__gxx_personality_v0 {
entry:
  %p1.i = alloca %struct.sat_params, align 8
  %call = tail call noalias noundef ptr @_ZN6memory8allocateEm(i64 noundef 48)
  call void @llvm.lifetime.start.p0(i64 16, ptr nonnull %p1.i)
  %m_ref_count.i.i = getelementptr inbounds i8, ptr %call, i64 8
  store i32 0, ptr %m_ref_count.i.i, align 8
  store ptr getelementptr inbounds ({ [25 x ptr] }, ptr @_ZTV10sat_tactic, i64 0, i32 0, i64 2), ptr %call, align 8
  %m_imp.i = getelementptr inbounds i8, ptr %call, i64 16
  store ptr null, ptr %m_imp.i, align 8
  %m_params.i = getelementptr inbounds i8, ptr %call, i64 24
  tail call void @_ZN10params_refC1ERKS_(ptr noundef nonnull align 8 dereferenceable(8) %m_params.i, ptr noundef nonnull align 8 dereferenceable(8) %p)
  %m_stats.i = getelementptr inbounds i8, ptr %call, i64 32
  tail call void @llvm.memset.p0.i64(ptr noundef nonnull align 8 dereferenceable(16) %m_stats.i, i8 0, i64 16, i1 false)
  store ptr %p, ptr %p1.i, align 8
  %g.i.i = getelementptr inbounds i8, ptr %p1.i, i64 8
  invoke void @_ZN7gparams10get_moduleEPKc(ptr nonnull sret(%class.params_ref) align 8 %g.i.i, ptr noundef nonnull @.str.6)
          to label %_ZN10sat_tacticC2ER11ast_managerRK10params_ref.exit unwind label %lpad4.i

lpad4.i:                                          ; preds = %entry
  %0 = landingpad { ptr, i32 }
          cleanup
  call void @_ZN10statisticsD2Ev(ptr noundef nonnull align 8 dereferenceable(16) %m_stats.i) #16
  call void @_ZN10params_refD1Ev(ptr noundef nonnull align 8 dereferenceable(8) %m_params.i) #16
  resume { ptr, i32 } %0

_ZN10sat_tacticC2ER11ast_managerRK10params_ref.exit: ; preds = %entry
  call void @_ZN10params_refD1Ev(ptr noundef nonnull align 8 dereferenceable(8) %g.i.i) #16
  call void @llvm.lifetime.end.p0(i64 16, ptr nonnull %p1.i)
  %call1 = call noundef ptr @_Z5cleanP6tactic(ptr noundef nonnull %call)
  ret ptr %call1
}